target datalayout = "e-m:e-p270:32:32-p271:32:32-p272:64:64-i64:64-i128:128-f80:128-n8:16:32:64-S128"
target triple = "x86_64-pc-linux-gnu"

%struct.slurm_preempt_ops = type { ptr, ptr, ptr }

@plugin_inited = internal global i32 0, align 4
@ops = internal global %struct.slurm_preempt_ops zeroinitializer, align 8

; Function Attrs: nounwind uwtable
define dso_local i32 @preempt_g_get_data(ptr noundef %0, i32 noundef %1, ptr noundef %2) #0 {
  %4 = alloca i32, align 4
  %5 = alloca ptr, align 8
  %6 = alloca i32, align 4
  %7 = alloca ptr, align 8
  store ptr %0, ptr %5, align 8
  store i32 %1, ptr %6, align 4
  store ptr %2, ptr %7, align 8
  %8 = load i32, ptr @plugin_inited, align 4
  %9 = icmp eq i32 %8, 1
  br i1 %9, label %10, label %11

10:                                               ; preds = %3
  store i32 0, ptr %4, align 4
  br label %17

11:                                               ; preds = %3
  %12 = load ptr, ptr getelementptr inbounds nuw (%struct.slurm_preempt_ops, ptr @ops, i32 0, i32 2), align 8
  %13 = load ptr, ptr %5, align 8
  %14 = load i32, ptr %6, align 4
  %15 = load ptr, ptr %7, align 8
  %16 = call i32 %12(ptr noundef %13, i32 noundef %14, ptr noundef %15)
  store i32 %16, ptr %4, align 4
  br label %17

17:                                               ; preds = %11, %10
  %18 = load i32, ptr %4, align 4
  ret i32 %18
}